; ModuleID = 'source-C-CXX/49/1041.c'
source_filename = "source-C-CXX/49/1041.c"
target datalayout = "e-m:e-p270:32:32-p271:32:32-p272:64:64-i64:64-f80:128-n8:16:32:64-S128"
target triple = "x86_64-pc-linux-gnu"

%struct.form = type { i32, i32, i32 }

@__const.main.monthday = private unnamed_addr constant [12 x i32] [i32 31, i32 28, i32 31, i32 30, i32 31, i32 30, i32 31, i32 31, i32 30, i32 31, i32 30, i32 31], align 16
@.str = private unnamed_addr constant [3 x i8] c"%d\00", align 1
@every = dso_local local_unnamed_addr global [365 x %struct.form] zeroinitializer, align 16
@.str.1 = private unnamed_addr constant [4 x i8] c"%d\0A\00", align 1

; Function Attrs: nofree nounwind sspstrong uwtable
define dso_local void @main() local_unnamed_addr #0 {
  %1 = alloca i32, align 4
  %2 = bitcast i32* %1 to i8*
  call void @llvm.lifetime.start.p0i8(i64 4, i8* nonnull %2) #3
  %3 = call i32 (i8*, ...) @__isoc99_scanf(i8* getelementptr inbounds ([3 x i8], [3 x i8]* @.str, i64 0, i64 0), i32* nonnull %1)
  %4 = load i32, i32* %1, align 4, !tbaa !5
  br label %5

5:                                                ; preds = %0, %5
  %6 = phi i64 [ 0, %0 ], [ %25, %5 ]
  %7 = phi i32 [ %4, %0 ], [ %24, %5 ]
  %8 = phi i32 [ 1, %0 ], [ %21, %5 ]
  %9 = phi i32 [ 1, %0 ], [ %20, %5 ]
  %10 = getelementptr inbounds [365 x %struct.form], [365 x %struct.form]* @every, i64 0, i64 %6, i32 0
  store i32 %9, i32* %10, align 4, !tbaa !9
  %11 = getelementptr inbounds [365 x %struct.form], [365 x %struct.form]* @every, i64 0, i64 %6, i32 1
  store i32 %7, i32* %11, align 4, !tbaa !11
  %12 = getelementptr inbounds [365 x %struct.form], [365 x %struct.form]* @every, i64 0, i64 %6, i32 2
  store i32 %8, i32* %12, align 4, !tbaa !12
  %13 = add nsw i32 %9, -1
  %14 = sext i32 %13 to i64
  %15 = getelementptr inbounds [12 x i32], [12 x i32]* @__const.main.monthday, i64 0, i64 %14
  %16 = load i32, i32* %15, align 4, !tbaa !5
  %17 = icmp eq i32 %8, %16
  %18 = add nsw i32 %8, 1
  %19 = zext i1 %17 to i32
  %20 = add nuw nsw i32 %9, %19
  %21 = select i1 %17, i32 1, i32 %18
  %22 = icmp eq i32 %7, 7
  %23 = add nsw i32 %7, 1
  %24 = select i1 %22, i32 1, i32 %23
  %25 = add nuw nsw i64 %6, 1
  %26 = icmp eq i64 %25, 365
  br i1 %26, label %27, label %5, !llvm.loop !13

27:                                               ; preds = %5, %40
  %28 = phi i64 [ %41, %40 ], [ 0, %5 ]
  %29 = getelementptr inbounds [365 x %struct.form], [365 x %struct.form]* @every, i64 0, i64 %28, i32 2
  %30 = load i32, i32* %29, align 4, !tbaa !12
  %31 = icmp eq i32 %30, 13
  br i1 %31, label %32, label %40

32:                                               ; preds = %27
  %33 = getelementptr inbounds [365 x %struct.form], [365 x %struct.form]* @every, i64 0, i64 %28, i32 1
  %34 = load i32, i32* %33, align 4, !tbaa !11
  %35 = icmp eq i32 %34, 5
  br i1 %35, label %36, label %40

36:                                               ; preds = %32
  %37 = getelementptr inbounds [365 x %struct.form], [365 x %struct.form]* @every, i64 0, i64 %28, i32 0
  %38 = load i32, i32* %37, align 4, !tbaa !9
  %39 = call i32 (i8*, ...) @printf(i8* nonnull dereferenceable(1) getelementptr inbounds ([4 x i8], [4 x i8]* @.str.1, i64 0, i64 0), i32 %38)
  br label %40

40:                                               ; preds = %27, %32, %36
  %41 = add nuw nsw i64 %28, 1
  %42 = icmp eq i64 %41, 365
  br i1 %42, label %43, label %27, !llvm.loop !15

43:                                               ; preds = %40
  call void @llvm.lifetime.end.p0i8(i64 4, i8* nonnull %2) #3
  ret void
}

; Function Attrs: argmemonly mustprogress nofree nosync nounwind willreturn
declare void @llvm.lifetime.start.p0i8(i64 immarg, i8* nocapture) #1

; Function Attrs: nofree nounwind
declare noundef i32 @__isoc99_scanf(i8* nocapture noundef readonly, ...) local_unnamed_addr #2

; Function Attrs: nofree nounwind
declare noundef i32 @printf(i8* nocapture noundef readonly, ...) local_unnamed_addr #2

; Function Attrs: argmemonly mustprogress nofree nosync nounwind willreturn
declare void @llvm.lifetime.end.p0i8(i64 immarg, i8* nocapture) #1


!llvm.module.flags = !{!0, !1, !2, !3}
!llvm.ident = !{!4}

!0 = !{i32 1, !"wchar_size", i32 4}
!1 = !{i32 7, !"PIC Level", i32 2}
!2 = !{i32 7, !"PIE Level", i32 2}
!3 = !{i32 7, !"uwtable", i32 1}
!4 = !{!"clang version 13.0.0"}
!5 = !{!6, !6, i64 0}
!6 = !{!"int", !7, i64 0}
!7 = !{!"omnipotent char", !8, i64 0}
!8 = !{!"Simple C/C++ TBAA"}
!9 = !{!10, !6, i64 0}
!10 = !{!"form", !6, i64 0, !6, i64 4, !6, i64 8}
!11 = !{!10, !6, i64 4}
!12 = !{!10, !6, i64 8}
!13 = distinct !{!13, !14}
!14 = !{!"llvm.loop.mustprogress"}
!15 = distinct !{!15, !14}
